target datalayout = "e-m:e-p270:32:32-p271:32:32-p272:64:64-i64:64-i128:128-f80:128-n8:16:32:64-S128"
target triple = "x86_64-pc-linux-gnu"

%struct.AVFilterContext = type { ptr, ptr, ptr, ptr, ptr, i32, ptr, ptr, i32, ptr, ptr, i32, i32, ptr, ptr, ptr, ptr, i32, ptr, i32, i32 }
%struct.ColorMapContext = type { ptr, i32, i32, i32, i32, [2 x i32], [64 x [4 x float]], [64 x [4 x float]], [64 x [4 x float]], [4 x [4 x float]], [64 x [4 x float]], i32, i32, ptr, %struct.FFFrameSync, [4624 x double], [68 x double], [68 x i32] }
%struct.FFFrameSync = type { ptr, ptr, i32, %struct.AVRational, i64, ptr, ptr, i32, i32, i8, i8, ptr, i32, i32, i32, i32 }
%struct.AVRational = type { i32, i32 }
%struct.AVFilterLink = type { ptr, ptr, ptr, ptr, i32, i32, i32, i32, %struct.AVRational, i32, i32, i32, %struct.AVChannelLayout, %struct.AVRational, ptr, i32, %struct.AVFilterFormatsConfig, %struct.AVFilterFormatsConfig }
%struct.AVChannelLayout = type { i32, i32, %union.anon.1, ptr }
%union.anon.1 = type { i64 }
%struct.AVFilterFormatsConfig = type { ptr, ptr, ptr, ptr, ptr }
%struct.AVFrame = type { [8 x ptr], [8 x i32], ptr, i32, i32, i32, i32, i32, %struct.AVRational, i64, i64, %struct.AVRational, i32, ptr, i32, i32, [8 x ptr], ptr, i32, ptr, i32, i32, i32, i32, i32, i32, i32, i64, ptr, i32, ptr, ptr, i64, i64, i64, i64, ptr, %struct.AVChannelLayout, i64 }

; Function Attrs: nounwind uwtable
define internal i32 @import_map(ptr noundef %0, ptr noundef %1) #2 {
  %3 = alloca ptr, align 8
  %4 = alloca ptr, align 8
  %5 = alloca ptr, align 8
  %6 = alloca ptr, align 8
  %7 = alloca i32, align 4
  %8 = alloca i32, align 4
  %9 = alloca i32, align 4
  %10 = alloca i32, align 4
  %11 = alloca i32, align 4
  %12 = alloca i32, align 4
  %13 = alloca i32, align 4
  %14 = alloca i32, align 4
  %15 = alloca i32, align 4
  %16 = alloca i32, align 4
  %17 = alloca i32, align 4
  %18 = alloca ptr, align 8
  %19 = alloca i32, align 4
  %20 = alloca float, align 4
  store ptr %0, ptr %3, align 8, !tbaa !24
  store ptr %1, ptr %4, align 8, !tbaa !61
  call void @llvm.lifetime.start.p0(i64 8, ptr %5) #10
  %21 = load ptr, ptr %3, align 8, !tbaa !24
  %22 = getelementptr inbounds nuw %struct.AVFilterLink, ptr %21, i32 0, i32 2
  %23 = load ptr, ptr %22, align 8, !tbaa !77
  store ptr %23, ptr %5, align 8, !tbaa !4
  call void @llvm.lifetime.start.p0(i64 8, ptr %6) #10
  %24 = load ptr, ptr %5, align 8, !tbaa !4
  %25 = getelementptr inbounds nuw %struct.AVFilterContext, ptr %24, i32 0, i32 9
  %26 = load ptr, ptr %25, align 8, !tbaa !9
  store ptr %26, ptr %6, align 8, !tbaa !22
  call void @llvm.lifetime.start.p0(i64 4, ptr %7) #10
  %27 = load ptr, ptr %3, align 8, !tbaa !24
  %28 = getelementptr inbounds nuw %struct.AVFilterLink, ptr %27, i32 0, i32 3
  %29 = load ptr, ptr %28, align 8, !tbaa !78
  %30 = load ptr, ptr %3, align 8, !tbaa !24
  %31 = getelementptr inbounds nuw %struct.AVFilterLink, ptr %30, i32 0, i32 2
  %32 = load ptr, ptr %31, align 8, !tbaa !77
  %33 = getelementptr inbounds nuw %struct.AVFilterContext, ptr %32, i32 0, i32 3
  %34 = load ptr, ptr %33, align 8, !tbaa !79
  %35 = ptrtoint ptr %29 to i64
  %36 = ptrtoint ptr %34 to i64
  %37 = sub i64 %35, %36
  %38 = sdiv exact i64 %37, 48
  %39 = trunc i64 %38 to i32
  %40 = icmp sgt i32 %39, 1
  %41 = zext i1 %40 to i32
  store i32 %41, ptr %7, align 4, !tbaa !38
  call void @llvm.lifetime.start.p0(i64 4, ptr %8) #10
  %42 = load ptr, ptr %6, align 8, !tbaa !22
  %43 = getelementptr inbounds nuw %struct.ColorMapContext, ptr %42, i32 0, i32 1
  %44 = load i32, ptr %43, align 8, !tbaa !80
  store i32 %44, ptr %8, align 4, !tbaa !38
  call void @llvm.lifetime.start.p0(i64 4, ptr %9) #10
  %45 = load ptr, ptr %6, align 8, !tbaa !22
  %46 = getelementptr inbounds nuw %struct.ColorMapContext, ptr %45, i32 0, i32 1
  %47 = load i32, ptr %46, align 8, !tbaa !80
  %48 = sdiv i32 %47, 2
  store i32 %48, ptr %9, align 4, !tbaa !38
  call void @llvm.lifetime.start.p0(i64 4, ptr %10) #10
  %49 = load ptr, ptr %6, align 8, !tbaa !22
  %50 = getelementptr inbounds nuw %struct.ColorMapContext, ptr %49, i32 0, i32 2
  %51 = load i32, ptr %50, align 4, !tbaa !81
  store i32 %51, ptr %10, align 4, !tbaa !38
  call void @llvm.lifetime.start.p0(i64 4, ptr %11) #10
  %52 = load ptr, ptr %6, align 8, !tbaa !22
  %53 = getelementptr inbounds nuw %struct.ColorMapContext, ptr %52, i32 0, i32 2
  %54 = load i32, ptr %53, align 4, !tbaa !81
  %55 = sdiv i32 %54, 2
  store i32 %55, ptr %11, align 4, !tbaa !38
  call void @llvm.lifetime.start.p0(i64 4, ptr %12) #10
  store i32 0, ptr %12, align 4, !tbaa !38
  call void @llvm.lifetime.start.p0(i64 4, ptr %13) #10
  call void @llvm.lifetime.start.p0(i64 4, ptr %14) #10
  store i32 0, ptr %14, align 4, !tbaa !38
  br label %56

56:                                               ; preds = %180, %2
  %57 = load i32, ptr %14, align 4, !tbaa !38
  %58 = icmp slt i32 %57, 3
  br i1 %58, label %60, label %59

59:                                               ; preds = %56
  store i32 2, ptr %15, align 4
  call void @llvm.lifetime.end.p0(i64 4, ptr %14) #10
  br label %183

60:                                               ; preds = %56
  call void @llvm.lifetime.start.p0(i64 4, ptr %16) #10
  %61 = load i32, ptr %14, align 4, !tbaa !38
  %62 = icmp eq i32 %61, 0
  br i1 %62, label %63, label %64

63:                                               ; preds = %60
  br label %68

64:                                               ; preds = %60
  %65 = load i32, ptr %14, align 4, !tbaa !38
  %66 = icmp eq i32 %65, 1
  %67 = select i1 %66, i32 2, i32 0
  br label %68

68:                                               ; preds = %64, %63
  %69 = phi i32 [ 1, %63 ], [ %67, %64 ]
  store i32 %69, ptr %16, align 4, !tbaa !38
  store i32 0, ptr %13, align 4, !tbaa !38
  call void @llvm.lifetime.start.p0(i64 4, ptr %17) #10
  %70 = load i32, ptr %11, align 4, !tbaa !38
  store i32 %70, ptr %17, align 4, !tbaa !38
  br label %71

71:                                               ; preds = %175, %68
  %72 = load i32, ptr %17, align 4, !tbaa !38
  %73 = load ptr, ptr %4, align 8, !tbaa !61
  %74 = getelementptr inbounds nuw %struct.AVFrame, ptr %73, i32 0, i32 4
  %75 = load i32, ptr %74, align 4, !tbaa !66
  %76 = icmp slt i32 %72, %75
  br i1 %76, label %77, label %80

77:                                               ; preds = %71
  %78 = load i32, ptr %13, align 4, !tbaa !38
  %79 = icmp slt i32 %78, 64
  br label %80

80:                                               ; preds = %77, %71
  %81 = phi i1 [ false, %71 ], [ %79, %77 ]
  br i1 %81, label %83, label %82

82:                                               ; preds = %80
  store i32 5, ptr %15, align 4
  call void @llvm.lifetime.end.p0(i64 4, ptr %17) #10
  br label %179

83:                                               ; preds = %80
  call void @llvm.lifetime.start.p0(i64 8, ptr %18) #10
  %84 = load ptr, ptr %4, align 8, !tbaa !61
  %85 = getelementptr inbounds nuw %struct.AVFrame, ptr %84, i32 0, i32 0
  %86 = load i32, ptr %14, align 4, !tbaa !38
  %87 = sext i32 %86 to i64
  %88 = getelementptr inbounds [8 x ptr], ptr %85, i64 0, i64 %87
  %89 = load ptr, ptr %88, align 8, !tbaa !82
  %90 = load i32, ptr %17, align 4, !tbaa !38
  %91 = load ptr, ptr %4, align 8, !tbaa !61
  %92 = getelementptr inbounds nuw %struct.AVFrame, ptr %91, i32 0, i32 1
  %93 = load i32, ptr %14, align 4, !tbaa !38
  %94 = sext i32 %93 to i64
  %95 = getelementptr inbounds [8 x i32], ptr %92, i64 0, i64 %94
  %96 = load i32, ptr %95, align 4, !tbaa !38
  %97 = mul nsw i32 %90, %96
  %98 = sext i32 %97 to i64
  %99 = getelementptr inbounds i8, ptr %89, i64 %98
  store ptr %99, ptr %18, align 8, !tbaa !73
  call void @llvm.lifetime.start.p0(i64 4, ptr %19) #10
  %100 = load i32, ptr %9, align 4, !tbaa !38
  store i32 %100, ptr %19, align 4, !tbaa !38
  br label %101

101:                                              ; preds = %170, %83
  %102 = load i32, ptr %19, align 4, !tbaa !38
  %103 = load ptr, ptr %4, align 8, !tbaa !61
  %104 = getelementptr inbounds nuw %struct.AVFrame, ptr %103, i32 0, i32 3
  %105 = load i32, ptr %104, align 8, !tbaa !83
  %106 = icmp slt i32 %102, %105
  br i1 %106, label %107, label %110

107:                                              ; preds = %101
  %108 = load i32, ptr %13, align 4, !tbaa !38
  %109 = icmp slt i32 %108, 64
  br label %110

110:                                              ; preds = %107, %101
  %111 = phi i1 [ false, %101 ], [ %109, %107 ]
  br i1 %111, label %113, label %112

112:                                              ; preds = %110
  store i32 8, ptr %15, align 4
  call void @llvm.lifetime.end.p0(i64 4, ptr %19) #10
  br label %174

113:                                              ; preds = %110
  call void @llvm.lifetime.start.p0(i64 4, ptr %20) #10
  %114 = load ptr, ptr %18, align 8, !tbaa !73
  %115 = load i32, ptr %19, align 4, !tbaa !38
  %116 = sext i32 %115 to i64
  %117 = getelementptr inbounds float, ptr %114, i64 %116
  %118 = load float, ptr %117, align 4, !tbaa !75
  store float %118, ptr %20, align 4, !tbaa !75
  %119 = load i32, ptr %7, align 4, !tbaa !38
  %120 = icmp ne i32 %119, 0
  br i1 %120, label %121, label %144

121:                                              ; preds = %113
  %122 = load ptr, ptr %6, align 8, !tbaa !22
  %123 = getelementptr inbounds nuw %struct.ColorMapContext, ptr %122, i32 0, i32 7
  %124 = load i32, ptr %13, align 4, !tbaa !38
  %125 = sext i32 %124 to i64
  %126 = getelementptr inbounds [64 x [4 x float]], ptr %123, i64 0, i64 %125
  %127 = load i32, ptr %16, align 4, !tbaa !38
  %128 = sext i32 %127 to i64
  %129 = getelementptr inbounds [4 x float], ptr %126, i64 0, i64 %128
  %130 = load float, ptr %129, align 4, !tbaa !75
  %131 = load float, ptr %20, align 4, !tbaa !75
  %132 = fcmp nsz une float %130, %131
  br i1 %132, label %133, label %134

133:                                              ; preds = %121
  store i32 1, ptr %12, align 4, !tbaa !38
  br label %134

134:                                              ; preds = %133, %121
  %135 = load float, ptr %20, align 4, !tbaa !75
  %136 = load ptr, ptr %6, align 8, !tbaa !22
  %137 = getelementptr inbounds nuw %struct.ColorMapContext, ptr %136, i32 0, i32 7
  %138 = load i32, ptr %13, align 4, !tbaa !38
  %139 = sext i32 %138 to i64
  %140 = getelementptr inbounds [64 x [4 x float]], ptr %137, i64 0, i64 %139
  %141 = load i32, ptr %16, align 4, !tbaa !38
  %142 = sext i32 %141 to i64
  %143 = getelementptr inbounds [4 x float], ptr %140, i64 0, i64 %142
  store float %135, ptr %143, align 4, !tbaa !75
  br label %167

144:                                              ; preds = %113
  %145 = load ptr, ptr %6, align 8, !tbaa !22
  %146 = getelementptr inbounds nuw %struct.ColorMapContext, ptr %145, i32 0, i32 6
  %147 = load i32, ptr %13, align 4, !tbaa !38
  %148 = sext i32 %147 to i64
  %149 = getelementptr inbounds [64 x [4 x float]], ptr %146, i64 0, i64 %148
  %150 = load i32, ptr %16, align 4, !tbaa !38
  %151 = sext i32 %150 to i64
  %152 = getelementptr inbounds [4 x float], ptr %149, i64 0, i64 %151
  %153 = load float, ptr %152, align 4, !tbaa !75
  %154 = load float, ptr %20, align 4, !tbaa !75
  %155 = fcmp nsz une float %153, %154
  br i1 %155, label %156, label %157

156:                                              ; preds = %144
  store i32 1, ptr %12, align 4, !tbaa !38
  br label %157

157:                                              ; preds = %156, %144
  %158 = load float, ptr %20, align 4, !tbaa !75
  %159 = load ptr, ptr %6, align 8, !tbaa !22
  %160 = getelementptr inbounds nuw %struct.ColorMapContext, ptr %159, i32 0, i32 6
  %161 = load i32, ptr %13, align 4, !tbaa !38
  %162 = sext i32 %161 to i64
  %163 = getelementptr inbounds [64 x [4 x float]], ptr %160, i64 0, i64 %162
  %164 = load i32, ptr %16, align 4, !tbaa !38
  %165 = sext i32 %164 to i64
  %166 = getelementptr inbounds [4 x float], ptr %163, i64 0, i64 %165
  store float %158, ptr %166, align 4, !tbaa !75
  br label %167

167:                                              ; preds = %157, %134
  %168 = load i32, ptr %13, align 4, !tbaa !38
  %169 = add nsw i32 %168, 1
  store i32 %169, ptr %13, align 4, !tbaa !38
  call void @llvm.lifetime.end.p0(i64 4, ptr %20) #10
  br label %170

170:                                              ; preds = %167
  %171 = load i32, ptr %8, align 4, !tbaa !38
  %172 = load i32, ptr %19, align 4, !tbaa !38
  %173 = add nsw i32 %172, %171
  store i32 %173, ptr %19, align 4, !tbaa !38
  br label %101, !llvm.loop !84

174:                                              ; preds = %112
  call void @llvm.lifetime.end.p0(i64 8, ptr %18) #10
  br label %175

175:                                              ; preds = %174
  %176 = load i32, ptr %10, align 4, !tbaa !38
  %177 = load i32, ptr %17, align 4, !tbaa !38
  %178 = add nsw i32 %177, %176
  store i32 %178, ptr %17, align 4, !tbaa !38
  br label %71, !llvm.loop !86

179:                                              ; preds = %82
  call void @llvm.lifetime.end.p0(i64 4, ptr %16) #10
  br label %180

180:                                              ; preds = %179
  %181 = load i32, ptr %14, align 4, !tbaa !38
  %182 = add nsw i32 %181, 1
  store i32 %182, ptr %14, align 4, !tbaa !38
  br label %56, !llvm.loop !87

183:                                              ; preds = %59
  %184 = load i32, ptr %12, align 4, !tbaa !38
  %185 = icmp ne i32 %184, 0
  br i1 %185, label %186, label %192

186:                                              ; preds = %183
  %187 = load ptr, ptr %6, align 8, !tbaa !22
  %188 = getelementptr inbounds nuw %struct.ColorMapContext, ptr %187, i32 0, i32 5
  %189 = load i32, ptr %7, align 4, !tbaa !38
  %190 = sext i32 %189 to i64
  %191 = getelementptr inbounds [2 x i32], ptr %188, i64 0, i64 %190
  store i32 1, ptr %191, align 4, !tbaa !38
  br label %192

192:                                              ; preds = %186, %183
  %193 = load ptr, ptr %6, align 8, !tbaa !22
  %194 = getelementptr inbounds nuw %struct.ColorMapContext, ptr %193, i32 0, i32 3
  %195 = load i32, ptr %194, align 8, !tbaa !88
  %196 = icmp ne i32 %195, 0
  br i1 %196, label %207, label %197

197:                                              ; preds = %192
  %198 = load i32, ptr %13, align 4, !tbaa !38
  %199 = icmp sgt i32 %198, 64
  br i1 %199, label %200, label %201

200:                                              ; preds = %197
  br label %203

201:                                              ; preds = %197
  %202 = load i32, ptr %13, align 4, !tbaa !38
  br label %203

203:                                              ; preds = %201, %200
  %204 = phi i32 [ 64, %200 ], [ %202, %201 ]
  %205 = load ptr, ptr %6, align 8, !tbaa !22
  %206 = getelementptr inbounds nuw %struct.ColorMapContext, ptr %205, i32 0, i32 3
  store i32 %204, ptr %206, align 8, !tbaa !88
  br label %207

207:                                              ; preds = %203, %192
  %208 = load i32, ptr %7, align 4, !tbaa !38
  %209 = icmp ne i32 %208, 0
  br i1 %209, label %226, label %210

210:                                              ; preds = %207
  %211 = load i32, ptr %13, align 4, !tbaa !38
  %212 = load ptr, ptr %6, align 8, !tbaa !22
  %213 = getelementptr inbounds nuw %struct.ColorMapContext, ptr %212, i32 0, i32 3
  %214 = load i32, ptr %213, align 8, !tbaa !88
  %215 = icmp sgt i32 %211, %214
  br i1 %215, label %216, label %220

216:                                              ; preds = %210
  %217 = load ptr, ptr %6, align 8, !tbaa !22
  %218 = getelementptr inbounds nuw %struct.ColorMapContext, ptr %217, i32 0, i32 3
  %219 = load i32, ptr %218, align 8, !tbaa !88
  br label %222

220:                                              ; preds = %210
  %221 = load i32, ptr %13, align 4, !tbaa !38
  br label %222

222:                                              ; preds = %220, %216
  %223 = phi i32 [ %219, %216 ], [ %221, %220 ]
  %224 = load ptr, ptr %6, align 8, !tbaa !22
  %225 = getelementptr inbounds nuw %struct.ColorMapContext, ptr %224, i32 0, i32 4
  store i32 %223, ptr %225, align 4, !tbaa !89
  br label %226

226:                                              ; preds = %222, %207
  store i32 1, ptr %15, align 4
  call void @llvm.lifetime.end.p0(i64 4, ptr %13) #10
  call void @llvm.lifetime.end.p0(i64 4, ptr %12) #10
  call void @llvm.lifetime.end.p0(i64 4, ptr %11) #10
  call void @llvm.lifetime.end.p0(i64 4, ptr %10) #10
  call void @llvm.lifetime.end.p0(i64 4, ptr %9) #10
  call void @llvm.lifetime.end.p0(i64 4, ptr %8) #10
  call void @llvm.lifetime.end.p0(i64 4, ptr %7) #10
  call void @llvm.lifetime.end.p0(i64 8, ptr %6) #10
  call void @llvm.lifetime.end.p0(i64 8, ptr %5) #10
  ret i32 0
}