; Function Attrs: nofree norecurse nosync nounwind memory(read, argmem: readwrite, inaccessiblemem: none) uwtable
define internal fastcc void @import_map(ptr %.16.val.24.val, ptr captures(none) %.16.val.72.val, ptr %.24.val, ptr noundef readonly captures(none) %0) unnamed_addr #5 {
  %2 = ptrtoint ptr %.24.val to i64
  %3 = ptrtoint ptr %.16.val.24.val to i64
  %4 = sub i64 %2, %3
  %5 = sdiv exact i64 %4, 48
  %6 = trunc i64 %5 to i32
  %7 = icmp sgt i32 %6, 1
  %8 = getelementptr inbounds nuw i8, ptr %.16.val.72.val, i64 8
  %9 = load i32, ptr %8, align 8, !tbaa !93
  %10 = sdiv i32 %9, 2
  %11 = getelementptr inbounds nuw i8, ptr %.16.val.72.val, i64 12
  %12 = load i32, ptr %11, align 4, !tbaa !94
  %13 = sdiv i32 %12, 2
  %14 = getelementptr inbounds nuw i8, ptr %0, i64 108
  %15 = load i32, ptr %14, align 4, !tbaa !86
  %16 = icmp slt i32 %13, %15
  %17 = getelementptr inbounds nuw i8, ptr %0, i64 64
  %18 = getelementptr inbounds nuw i8, ptr %.16.val.72.val, i64 32
  %19 = getelementptr inbounds nuw i8, ptr %.16.val.72.val, i64 1056
  br i1 %16, label %.split.us, label %.split38.us.thread

.split.us:                                        ; preds = %1
  %20 = getelementptr inbounds nuw i8, ptr %0, i64 104
  %21 = load i32, ptr %20, align 8, !tbaa !95
  %22 = icmp slt i32 %10, %21
  br i1 %22, label %.split.us.split.us, label %.split38.us.thread

.split.us.split.us:                               ; preds = %.split.us
  %23 = sext i32 %10 to i64
  %24 = sext i32 %9 to i64
  %25 = sext i32 %21 to i64
  %26 = sext i32 %13 to i64
  %27 = sext i32 %12 to i64
  %28 = sext i32 %15 to i64
  br i1 %7, label %.lr.ph10.us.us.us, label %.lr.ph10.us.us

.lr.ph10.us.us.us:                                ; preds = %.split.us.split.us, %._crit_edge11.split.us.split.us.us.us.us
  %indvars.iv69 = phi i64 [ %indvars.iv.next70, %._crit_edge11.split.us.split.us.us.us.us ], [ 0, %.split.us.split.us ]
  %.025.us.us.us = phi i32 [ %.3.us.us.us.us.us.us, %._crit_edge11.split.us.split.us.us.us.us ], [ 0, %.split.us.split.us ]
  %29 = icmp eq i64 %indvars.iv69, 0
  %30 = icmp eq i64 %indvars.iv69, 1
  %31 = select i1 %30, i64 2, i64 0
  %32 = select i1 %29, i64 1, i64 %31
  %33 = getelementptr inbounds nuw [8 x ptr], ptr %0, i64 0, i64 %indvars.iv69
  %34 = load ptr, ptr %33, align 8, !tbaa !96
  %35 = getelementptr inbounds nuw [8 x i32], ptr %17, i64 0, i64 %indvars.iv69
  %36 = load i32, ptr %35, align 4, !tbaa !55
  %37 = sext i32 %36 to i64
  br label %.lr.ph.us.us.us.us.us

.lr.ph.us.us.us.us.us:                            ; preds = %._crit_edge.split.us.us.us.us.us.us, %.lr.ph10.us.us.us
  %indvars.iv66 = phi i64 [ %indvars.iv.next67, %._crit_edge.split.us.us.us.us.us.us ], [ %26, %.lr.ph10.us.us.us ]
  %.18.us.us.us.us.us = phi i32 [ %.3.us.us.us.us.us.us, %._crit_edge.split.us.us.us.us.us.us ], [ %.025.us.us.us, %.lr.ph10.us.us.us ]
  %.1637.us.us.us.us.us = phi i64 [ %indvars.iv.next62, %._crit_edge.split.us.us.us.us.us.us ], [ 0, %.lr.ph10.us.us.us ]
  %38 = mul nsw i64 %indvars.iv66, %37
  %39 = getelementptr inbounds i8, ptr %34, i64 %38
  %sext73 = shl i64 %.1637.us.us.us.us.us, 32
  %40 = ashr exact i64 %sext73, 32
  br label %41

41:                                               ; preds = %41, %.lr.ph.us.us.us.us.us
  %indvars.iv61 = phi i64 [ %indvars.iv.next62, %41 ], [ %40, %.lr.ph.us.us.us.us.us ]
  %indvars.iv59 = phi i64 [ %indvars.iv.next60, %41 ], [ %23, %.lr.ph.us.us.us.us.us ]
  %.23.us.us.us.us.us.us = phi i32 [ %.3.us.us.us.us.us.us, %41 ], [ %.18.us.us.us.us.us, %.lr.ph.us.us.us.us.us ]
  %42 = getelementptr inbounds float, ptr %39, i64 %indvars.iv59
  %43 = load float, ptr %42, align 4, !tbaa !58
  %44 = getelementptr inbounds [64 x [4 x float]], ptr %19, i64 0, i64 %indvars.iv61, i64 %32
  %45 = load float, ptr %44, align 4, !tbaa !58
  %46 = fcmp nsz une float %45, %43
  %.3.us.us.us.us.us.us = select i1 %46, i32 1, i32 %.23.us.us.us.us.us.us
  store float %43, ptr %44, align 4, !tbaa !58
  %indvars.iv.next62 = add nsw i64 %indvars.iv61, 1
  %indvars.iv.next60 = add nsw i64 %indvars.iv59, %24
  %47 = icmp slt i64 %indvars.iv.next60, %25
  %48 = icmp slt i64 %indvars.iv61, 63
  %49 = and i1 %47, %48
  br i1 %49, label %41, label %._crit_edge.split.us.us.us.us.us.us, !llvm.loop !97

._crit_edge.split.us.us.us.us.us.us:              ; preds = %41
  %indvars.iv.next67 = add nsw i64 %indvars.iv66, %27
  %50 = icmp slt i64 %indvars.iv.next67, %28
  %51 = icmp slt i64 %indvars.iv61, 63
  %52 = and i1 %50, %51
  br i1 %52, label %.lr.ph.us.us.us.us.us, label %._crit_edge11.split.us.split.us.us.us.us, !llvm.loop !98

._crit_edge11.split.us.split.us.us.us.us:         ; preds = %._crit_edge.split.us.us.us.us.us.us
  %indvars.iv.next70 = add nuw nsw i64 %indvars.iv69, 1
  %exitcond72.not = icmp eq i64 %indvars.iv.next70, 3
  br i1 %exitcond72.not, label %.split38.us, label %.lr.ph10.us.us.us, !llvm.loop !99

.lr.ph10.us.us:                                   ; preds = %.split.us.split.us, %._crit_edge11.split.us.split.us33.us
  %indvars.iv56 = phi i64 [ %indvars.iv.next57, %._crit_edge11.split.us.split.us33.us ], [ 0, %.split.us.split.us ]
  %.025.us.us = phi i32 [ %.5.us.us.us, %._crit_edge11.split.us.split.us33.us ], [ 0, %.split.us.split.us ]
  %53 = icmp eq i64 %indvars.iv56, 0
  %54 = icmp eq i64 %indvars.iv56, 1
  %55 = select i1 %54, i64 2, i64 0
  %56 = select i1 %53, i64 1, i64 %55
  %57 = getelementptr inbounds nuw [8 x ptr], ptr %0, i64 0, i64 %indvars.iv56
  %58 = load ptr, ptr %57, align 8, !tbaa !96
  %59 = getelementptr inbounds nuw [8 x i32], ptr %17, i64 0, i64 %indvars.iv56
  %60 = load i32, ptr %59, align 4, !tbaa !55
  %61 = sext i32 %60 to i64
  br label %.lr.ph.us.us29.us

.lr.ph.us.us29.us:                                ; preds = %.lr.ph10.us.us, %._crit_edge.split.us17.us.us
  %indvars.iv53 = phi i64 [ %26, %.lr.ph10.us.us ], [ %indvars.iv.next54, %._crit_edge.split.us17.us.us ]
  %.18.us.us30.us = phi i32 [ %.025.us.us, %.lr.ph10.us.us ], [ %.5.us.us.us, %._crit_edge.split.us17.us.us ]
  %.1637.us.us31.us = phi i64 [ 0, %.lr.ph10.us.us ], [ %indvars.iv.next49, %._crit_edge.split.us17.us.us ]
  %62 = mul nsw i64 %indvars.iv53, %61
  %63 = getelementptr inbounds i8, ptr %58, i64 %62
  %sext = shl i64 %.1637.us.us31.us, 32
  %64 = ashr exact i64 %sext, 32
  br label %65

65:                                               ; preds = %65, %.lr.ph.us.us29.us
  %indvars.iv48 = phi i64 [ %indvars.iv.next49, %65 ], [ %64, %.lr.ph.us.us29.us ]
  %indvars.iv = phi i64 [ %indvars.iv.next, %65 ], [ %23, %.lr.ph.us.us29.us ]
  %.23.us14.us.us = phi i32 [ %.5.us.us.us, %65 ], [ %.18.us.us30.us, %.lr.ph.us.us29.us ]
  %66 = getelementptr inbounds float, ptr %63, i64 %indvars.iv
  %67 = load float, ptr %66, align 4, !tbaa !58
  %68 = getelementptr inbounds [64 x [4 x float]], ptr %18, i64 0, i64 %indvars.iv48, i64 %56
  %69 = load float, ptr %68, align 4, !tbaa !58
  %70 = fcmp nsz une float %69, %67
  %.5.us.us.us = select i1 %70, i32 1, i32 %.23.us14.us.us
  store float %67, ptr %68, align 4, !tbaa !58
  %indvars.iv.next49 = add nsw i64 %indvars.iv48, 1
  %indvars.iv.next = add nsw i64 %indvars.iv, %24
  %71 = icmp slt i64 %indvars.iv.next, %25
  %72 = icmp slt i64 %indvars.iv48, 63
  %73 = and i1 %71, %72
  br i1 %73, label %65, label %._crit_edge.split.us17.us.us, !llvm.loop !97

._crit_edge.split.us17.us.us:                     ; preds = %65
  %indvars.iv.next54 = add nsw i64 %indvars.iv53, %27
  %74 = icmp slt i64 %indvars.iv.next54, %28
  %75 = icmp slt i64 %indvars.iv48, 63
  %76 = and i1 %74, %75
  br i1 %76, label %.lr.ph.us.us29.us, label %._crit_edge11.split.us.split.us33.us, !llvm.loop !98

._crit_edge11.split.us.split.us33.us:             ; preds = %._crit_edge.split.us17.us.us
  %indvars.iv.next57 = add nuw nsw i64 %indvars.iv56, 1
  %exitcond.not = icmp eq i64 %indvars.iv.next57, 3
  br i1 %exitcond.not, label %.split38.us, label %.lr.ph10.us.us, !llvm.loop !99

.split38.us:                                      ; preds = %._crit_edge11.split.us.split.us33.us, %._crit_edge11.split.us.split.us.us.us.us
  %indvars.iv.next49.lcssa.lcssa.lcssa.sink = phi i64 [ %indvars.iv.next62, %._crit_edge11.split.us.split.us.us.us.us ], [ %indvars.iv.next49, %._crit_edge11.split.us.split.us33.us ]
  %.us-phi40 = phi i32 [ %.3.us.us.us.us.us.us, %._crit_edge11.split.us.split.us.us.us.us ], [ %.5.us.us.us, %._crit_edge11.split.us.split.us33.us ]
  %77 = trunc nsw i64 %indvars.iv.next49.lcssa.lcssa.lcssa.sink to i32
  %.not = icmp eq i32 %.us-phi40, 0
  br i1 %.not, label %.split38.us.thread, label %78

78:                                               ; preds = %.split38.us
  %79 = getelementptr inbounds nuw i8, ptr %.16.val.72.val, i64 24
  %80 = zext i1 %7 to i64
  %81 = getelementptr inbounds nuw [2 x i32], ptr %79, i64 0, i64 %80
  store i32 1, ptr %81, align 4, !tbaa !55
  br label %.split38.us.thread

.split38.us.thread:                               ; preds = %.split.us, %1, %78, %.split38.us
  %.us-phi3977 = phi i32 [ %77, %78 ], [ %77, %.split38.us ], [ 0, %1 ], [ 0, %.split.us ]
  %82 = getelementptr inbounds nuw i8, ptr %.16.val.72.val, i64 16
  %83 = load i32, ptr %82, align 8, !tbaa !100
  %.not68 = icmp eq i32 %83, 0
  br i1 %.not68, label %84, label %86

84:                                               ; preds = %.split38.us.thread
  %85 = tail call i32 @llvm.smin.i32(i32 %.us-phi3977, i32 64)
  store i32 %85, ptr %82, align 8, !tbaa !100
  br label %86

86:                                               ; preds = %84, %.split38.us.thread
  %87 = phi i32 [ %85, %84 ], [ %83, %.split38.us.thread ]
  br i1 %7, label %90, label %88

88:                                               ; preds = %86
  %..062 = tail call i32 @llvm.smin.i32(i32 %.us-phi3977, i32 %87)
  %89 = getelementptr inbounds nuw i8, ptr %.16.val.72.val, i64 20
  store i32 %..062, ptr %89, align 4, !tbaa !56
  br label %90

90:                                               ; preds = %88, %86
  ret void
}